; Function Attrs: mustprogress nounwind uwtable
define hidden { ptr, i8 } @_ZN8JVMCIEnv35get_HotSpotCompiledCode_dataSectionE11JVMCIObject(ptr noundef nonnull align 8 dereferenceable(64) %0, ptr %1, i8 %2) local_unnamed_addr #0 align 2 {
  %4 = getelementptr inbounds i8, ptr %0, i64 24
  %5 = load i8, ptr %4, align 8
  %6 = trunc i8 %5 to i1
  br i1 %6, label %7, label %13

7:                                                ; preds = %3
  %8 = tail call noundef ptr @_ZN12HotSpotJVMCI7resolveE11JVMCIObject(ptr %1, i8 %2) #14
  %9 = tail call noundef ptr @_ZN12HotSpotJVMCI19HotSpotCompiledCode11dataSectionEP8JVMCIEnvP7oopDesc(ptr noundef nonnull %0, ptr noundef %8) #14
  %10 = tail call { ptr, i8 } @_ZN12HotSpotJVMCI4wrapEP7oopDesc(ptr noundef %9) #14
  %11 = extractvalue { ptr, i8 } %10, 1
  %12 = and i8 %11, 1
  %.fca.1.insert.i.i = insertvalue { ptr, i8 } %10, i8 %12, 1
  br label %15

13:                                               ; preds = %3
  %14 = tail call { ptr, i8 } @_ZN8JNIJVMCI19HotSpotCompiledCode15get_dataSectionEP8JVMCIEnv11JVMCIObject(ptr noundef nonnull %0, ptr %1, i8 %2) #14
  br label %15

15:                                               ; preds = %13, %7
  %.pn = phi { ptr, i8 } [ %.fca.1.insert.i.i, %7 ], [ %14, %13 ]
  ret { ptr, i8 } %.pn
}